target datalayout = "e-m:e-p270:32:32-p271:32:32-p272:64:64-i64:64-i128:128-f80:128-n8:16:32:64-S128"
target triple = "x86_64-pc-linux-gnu"

%struct.SDL_Mouse = type { ptr, ptr, ptr, ptr, ptr, ptr, ptr, ptr, ptr, ptr, ptr, ptr, ptr, ptr, i8, float, float, ptr, float, float, float, float, float, float, float, float, double, double, i8, i8, i8, i8, i8, i8, i8, i8, i64, i8, float, i8, float, i8, i32, i32, i8, i8, i8, i8, i8, i8, i8, i8, i8, ptr, i32, ptr, ptr, ptr, ptr, i8, ptr }
%struct.SDL_MouseInputSource = type { i32, i32, i32, ptr }

@SDL_mouse = internal global %struct.SDL_Mouse zeroinitializer, align 8

; Function Attrs: nounwind uwtable
define internal i32 @SDL_GetMouseButtonState(ptr noundef %0, i32 noundef %1, i1 noundef zeroext %2) #0 {
  %4 = alloca ptr, align 8
  %5 = alloca i32, align 4
  %6 = alloca i8, align 1
  %7 = alloca i32, align 4
  %8 = alloca i32, align 4
  store ptr %0, ptr %4, align 8
  store i32 %1, ptr %5, align 4
  %9 = zext i1 %2 to i8
  store i8 %9, ptr %6, align 1
  call void @llvm.lifetime.start.p0(i64 4, ptr %7) #7
  call void @llvm.lifetime.start.p0(i64 4, ptr %8) #7
  store i32 0, ptr %8, align 4
  store i32 0, ptr %7, align 4
  br label %10

10:                                               ; preds = %71, %3
  %11 = load i32, ptr %7, align 4
  %12 = load ptr, ptr %4, align 8
  %13 = getelementptr inbounds nuw %struct.SDL_Mouse, ptr %12, i32 0, i32 54
  %14 = load i32, ptr %13, align 8
  %15 = icmp slt i32 %11, %14
  br i1 %15, label %16, label %74

16:                                               ; preds = %10
  %17 = load i32, ptr %5, align 4
  %18 = icmp eq i32 %17, 0
  br i1 %18, label %22, label %19

19:                                               ; preds = %16
  %20 = load i32, ptr %5, align 4
  %21 = icmp eq i32 %20, -1
  br i1 %21, label %22, label %47

22:                                               ; preds = %19, %16
  %23 = load i8, ptr %6, align 1, !range !3, !noundef !4
  %24 = trunc i8 %23 to i1
  br i1 %24, label %35, label %25

25:                                               ; preds = %22
  %26 = load ptr, ptr %4, align 8
  %27 = getelementptr inbounds nuw %struct.SDL_Mouse, ptr %26, i32 0, i32 55
  %28 = load ptr, ptr %27, align 8
  %29 = load i32, ptr %7, align 4
  %30 = sext i32 %29 to i64
  %31 = getelementptr inbounds %struct.SDL_MouseInputSource, ptr %28, i64 %30
  %32 = getelementptr inbounds nuw %struct.SDL_MouseInputSource, ptr %31, i32 0, i32 0
  %33 = load i32, ptr %32, align 8
  %34 = icmp ne i32 %33, -1
  br i1 %34, label %35, label %46

35:                                               ; preds = %25, %22
  %36 = load ptr, ptr %4, align 8
  %37 = getelementptr inbounds nuw %struct.SDL_Mouse, ptr %36, i32 0, i32 55
  %38 = load ptr, ptr %37, align 8
  %39 = load i32, ptr %7, align 4
  %40 = sext i32 %39 to i64
  %41 = getelementptr inbounds %struct.SDL_MouseInputSource, ptr %38, i64 %40
  %42 = getelementptr inbounds nuw %struct.SDL_MouseInputSource, ptr %41, i32 0, i32 1
  %43 = load i32, ptr %42, align 4
  %44 = load i32, ptr %8, align 4
  %45 = or i32 %44, %43
  store i32 %45, ptr %8, align 4
  br label %46

46:                                               ; preds = %35, %25
  br label %70

47:                                               ; preds = %19
  %48 = load i32, ptr %5, align 4
  %49 = load ptr, ptr %4, align 8
  %50 = getelementptr inbounds nuw %struct.SDL_Mouse, ptr %49, i32 0, i32 55
  %51 = load ptr, ptr %50, align 8
  %52 = load i32, ptr %7, align 4
  %53 = sext i32 %52 to i64
  %54 = getelementptr inbounds %struct.SDL_MouseInputSource, ptr %51, i64 %53
  %55 = getelementptr inbounds nuw %struct.SDL_MouseInputSource, ptr %54, i32 0, i32 0
  %56 = load i32, ptr %55, align 8
  %57 = icmp eq i32 %48, %56
  br i1 %57, label %58, label %69

58:                                               ; preds = %47
  %59 = load ptr, ptr %4, align 8
  %60 = getelementptr inbounds nuw %struct.SDL_Mouse, ptr %59, i32 0, i32 55
  %61 = load ptr, ptr %60, align 8
  %62 = load i32, ptr %7, align 4
  %63 = sext i32 %62 to i64
  %64 = getelementptr inbounds %struct.SDL_MouseInputSource, ptr %61, i64 %63
  %65 = getelementptr inbounds nuw %struct.SDL_MouseInputSource, ptr %64, i32 0, i32 1
  %66 = load i32, ptr %65, align 4
  %67 = load i32, ptr %8, align 4
  %68 = or i32 %67, %66
  store i32 %68, ptr %8, align 4
  br label %74

69:                                               ; preds = %47
  br label %70

70:                                               ; preds = %69, %46
  br label %71

71:                                               ; preds = %70
  %72 = load i32, ptr %7, align 4
  %73 = add nsw i32 %72, 1
  store i32 %73, ptr %7, align 4
  br label %10, !llvm.loop !11

74:                                               ; preds = %58, %10
  %75 = load i32, ptr %8, align 4
  call void @llvm.lifetime.end.p0(i64 4, ptr %8) #7
  call void @llvm.lifetime.end.p0(i64 4, ptr %7) #7
  ret i32 %75
}

; Function Attrs: nounwind uwtable
define hidden i32 @SDL_GetMouseState_REAL(ptr noundef %0, ptr noundef %1) #0 {
  %3 = alloca ptr, align 8
  %4 = alloca ptr, align 8
  %5 = alloca ptr, align 8
  store ptr %0, ptr %3, align 8
  store ptr %1, ptr %4, align 8
  call void @llvm.lifetime.start.p0(i64 8, ptr %5) #7
  %6 = call ptr @SDL_GetMouse()
  store ptr %6, ptr %5, align 8
  %7 = load ptr, ptr %3, align 8
  %8 = icmp ne ptr %7, null
  br i1 %8, label %9, label %14

9:                                                ; preds = %2
  %10 = load ptr, ptr %5, align 8
  %11 = getelementptr inbounds nuw %struct.SDL_Mouse, ptr %10, i32 0, i32 18
  %12 = load float, ptr %11, align 8
  %13 = load ptr, ptr %3, align 8
  store float %12, ptr %13, align 4
  br label %14

14:                                               ; preds = %9, %2
  %15 = load ptr, ptr %4, align 8
  %16 = icmp ne ptr %15, null
  br i1 %16, label %17, label %22

17:                                               ; preds = %14
  %18 = load ptr, ptr %5, align 8
  %19 = getelementptr inbounds nuw %struct.SDL_Mouse, ptr %18, i32 0, i32 19
  %20 = load float, ptr %19, align 4
  %21 = load ptr, ptr %4, align 8
  store float %20, ptr %21, align 4
  br label %22

22:                                               ; preds = %17, %14
  %23 = load ptr, ptr %5, align 8
  %24 = call i32 @SDL_GetMouseButtonState(ptr noundef %23, i32 noundef 0, i1 noundef zeroext true)
  call void @llvm.lifetime.end.p0(i64 8, ptr %5) #7
  ret i32 %24
}

; Function Attrs: nounwind uwtable
define hidden ptr @SDL_GetMouse() #0 {
  ret ptr @SDL_mouse
}

; Function Attrs: nounwind uwtable
define hidden i32 @SDL_GetGlobalMouseState_REAL(ptr noundef %0, ptr noundef %1) #0 {
  %3 = alloca i32, align 4
  %4 = alloca ptr, align 8
  %5 = alloca ptr, align 8
  %6 = alloca ptr, align 8
  %7 = alloca float, align 4
  %8 = alloca float, align 4
  %9 = alloca i32, align 4
  store ptr %0, ptr %4, align 8
  store ptr %1, ptr %5, align 8
  call void @llvm.lifetime.start.p0(i64 8, ptr %6) #7
  %10 = call ptr @SDL_GetMouse()
  store ptr %10, ptr %6, align 8
  %11 = load ptr, ptr %6, align 8
  %12 = getelementptr inbounds nuw %struct.SDL_Mouse, ptr %11, i32 0, i32 9
  %13 = load ptr, ptr %12, align 8
  %14 = icmp ne ptr %13, null
  br i1 %14, label %15, label %32

15:                                               ; preds = %2
  call void @llvm.lifetime.start.p0(i64 4, ptr %7) #7
  call void @llvm.lifetime.start.p0(i64 4, ptr %8) #7
  %16 = load ptr, ptr %4, align 8
  %17 = icmp ne ptr %16, null
  br i1 %17, label %19, label %18

18:                                               ; preds = %15
  store ptr %7, ptr %4, align 8
  br label %19

19:                                               ; preds = %18, %15
  %20 = load ptr, ptr %5, align 8
  %21 = icmp ne ptr %20, null
  br i1 %21, label %23, label %22

22:                                               ; preds = %19
  store ptr %8, ptr %5, align 8
  br label %23

23:                                               ; preds = %22, %19
  %24 = load ptr, ptr %5, align 8
  store float 0.000000e+00, ptr %24, align 4
  %25 = load ptr, ptr %4, align 8
  store float 0.000000e+00, ptr %25, align 4
  %26 = load ptr, ptr %6, align 8
  %27 = getelementptr inbounds nuw %struct.SDL_Mouse, ptr %26, i32 0, i32 9
  %28 = load ptr, ptr %27, align 8
  %29 = load ptr, ptr %4, align 8
  %30 = load ptr, ptr %5, align 8
  %31 = call i32 %28(ptr noundef %29, ptr noundef %30)
  store i32 %31, ptr %3, align 4
  store i32 1, ptr %9, align 4
  call void @llvm.lifetime.end.p0(i64 4, ptr %8) #7
  call void @llvm.lifetime.end.p0(i64 4, ptr %7) #7
  br label %36

32:                                               ; preds = %2
  %33 = load ptr, ptr %4, align 8
  %34 = load ptr, ptr %5, align 8
  %35 = call i32 @SDL_GetMouseState_REAL(ptr noundef %33, ptr noundef %34)
  store i32 %35, ptr %3, align 4
  store i32 1, ptr %9, align 4
  br label %36

36:                                               ; preds = %32, %23
  call void @llvm.lifetime.end.p0(i64 8, ptr %6) #7
  %37 = load i32, ptr %3, align 4
  ret i32 %37
}