; Function Attrs: nounwind uwtable
define hidden i32 @SDL_GetGlobalMouseState_REAL(ptr noundef %0, ptr noundef %1) local_unnamed_addr #0 {
  %3 = alloca float, align 4
  %4 = alloca float, align 4
  %5 = load ptr, ptr getelementptr inbounds nuw (i8, ptr @SDL_mouse, i64 72), align 8
  %.not = icmp eq ptr %5, null
  br i1 %.not, label %9, label %6

6:                                                ; preds = %2
  call void @llvm.lifetime.start.p0(i64 4, ptr nonnull %3) #13
  call void @llvm.lifetime.start.p0(i64 4, ptr nonnull %4) #13
  %.not11 = icmp eq ptr %0, null
  %spec.store.select = select i1 %.not11, ptr %3, ptr %0
  %.not12 = icmp eq ptr %1, null
  %spec.store.select1 = select i1 %.not12, ptr %4, ptr %1
  store float 0.000000e+00, ptr %spec.store.select1, align 4
  store float 0.000000e+00, ptr %spec.store.select, align 4
  %7 = load ptr, ptr getelementptr inbounds nuw (i8, ptr @SDL_mouse, i64 72), align 8
  %8 = call i32 %7(ptr noundef nonnull %spec.store.select, ptr noundef nonnull %spec.store.select1) #13
  call void @llvm.lifetime.end.p0(i64 4, ptr nonnull %4) #13
  call void @llvm.lifetime.end.p0(i64 4, ptr nonnull %3) #13
  br label %SDL_GetMouseState_REAL.exit

9:                                                ; preds = %2
  %.not.i = icmp eq ptr %0, null
  br i1 %.not.i, label %12, label %10

10:                                               ; preds = %9
  %11 = load float, ptr getelementptr inbounds nuw (i8, ptr @SDL_mouse, i64 136), align 8
  store float %11, ptr %0, align 4
  br label %12

12:                                               ; preds = %10, %9
  %.not8.i = icmp eq ptr %1, null
  br i1 %.not8.i, label %15, label %13

13:                                               ; preds = %12
  %14 = load float, ptr getelementptr inbounds nuw (i8, ptr @SDL_mouse, i64 140), align 4
  store float %14, ptr %1, align 4
  br label %15

15:                                               ; preds = %13, %12
  %16 = load i32, ptr getelementptr inbounds nuw (i8, ptr @SDL_mouse, i64 248), align 8
  %17 = icmp sgt i32 %16, 0
  br i1 %17, label %.lr.ph.i.i, label %SDL_GetMouseState_REAL.exit

.lr.ph.i.i:                                       ; preds = %15
  %18 = load ptr, ptr getelementptr inbounds nuw (i8, ptr @SDL_mouse, i64 256), align 8
  %wide.trip.count18.i.i = zext nneg i32 %16 to i64
  br label %.lr.ph.split.us.split.us.i.i

.lr.ph.split.us.split.us.i.i:                     ; preds = %.lr.ph.split.us.split.us.i.i, %.lr.ph.i.i
  %indvars.iv15.i.i = phi i64 [ %indvars.iv.next16.i.i, %.lr.ph.split.us.split.us.i.i ], [ 0, %.lr.ph.i.i ]
  %.03.us.us.i.i = phi i32 [ %21, %.lr.ph.split.us.split.us.i.i ], [ 0, %.lr.ph.i.i ]
  %19 = getelementptr inbounds nuw %struct.SDL_MouseInputSource, ptr %18, i64 %indvars.iv15.i.i, i32 1
  %20 = load i32, ptr %19, align 4
  %21 = or i32 %20, %.03.us.us.i.i
  %indvars.iv.next16.i.i = add nuw nsw i64 %indvars.iv15.i.i, 1
  %exitcond19.not.i.i = icmp eq i64 %indvars.iv.next16.i.i, %wide.trip.count18.i.i
  br i1 %exitcond19.not.i.i, label %SDL_GetMouseState_REAL.exit, label %.lr.ph.split.us.split.us.i.i, !llvm.loop !11

SDL_GetMouseState_REAL.exit:                      ; preds = %.lr.ph.split.us.split.us.i.i, %15, %6
  %.0 = phi i32 [ %8, %6 ], [ 0, %15 ], [ %21, %.lr.ph.split.us.split.us.i.i ]
  ret i32 %.0
}